(lp0
(dp1
Vdomain
p2
V.facebook.com
p3
sVname
p4
Vlu
p5
sVexpires
p6
VSun, 25 Sep 2016 05:18:30 GMT
p7
sVvalue
p8
VRAGqoN8notVGqhl2_KQj6WCQ
p9
sVexpiry
p10
I1474780710
sVpath
p11
V/
p12
sVhttponly
p13
I01
sVsecure
p14
I01
sa(dp15
Vdomain
p16
V.facebook.com
p17
sVname
p18
Vs
p19
sVexpires
p20
VSun, 25 Sep 2016 05:18:30 GMT
p21
sVvalue
p22
VAa7tvuH9vvz3i96j
p23
sVexpiry
p24
I1474780710
sVpath
p25
g12
sVhttponly
p26
I01
sVsecure
p27
I01
sa(dp28
Vdomain
p29
V.facebook.com
p30
sVname
p31
Vcsm
p32
sVexpires
p33
VSun, 25 Sep 2016 05:18:30 GMT
p34
sVvalue
p35
V2
p36
sVexpiry
p37
I1474780710
sVpath
p38
g12
sVhttponly
p39
I00
sVsecure
p40
I00
sa(dp41
Vdomain
p42
V.facebook.com
p43
sVname
p44
Vxs
p45
sVexpires
p46
VSun, 25 Sep 2016 05:18:30 GMT
p47
sVvalue
p48
V190%3ApY3JlVn-avrzaA%3A2%3A1411708710%3A16397
p49
sVexpiry
p50
I1474780710
sVpath
p51
g12
sVhttponly
p52
I01
sVsecure
p53
I01
sa(dp54
Vdomain
p55
V.facebook.com
p56
sVname
p57
Vfr
p58
sVexpires
p59
VSun, 26 Oct 2014 05:18:30 GMT
p60
sVvalue
p61
V0DGjxuGgkIM5wiGv8.AWUxmtmCdSsdXqv5Z8aIJJNf3Pc.BUJPcm.Fc.AAA.0.AWVPAB1m
p62
sVexpiry
p63
I1414300710
sVpath
p64
g12
sVhttponly
p65
I01
sVsecure
p66
I00
sa(dp67
Vdomain
p68
V.facebook.com
p69
sVname
p70
Vc_user
p71
sVexpires
p72
VSun, 26 Oct 2014 05:18:30 GMT
p73
sVvalue
p74
V523698553
p75
sVexpiry
p76
I1414300710
sVpath
p77
g12
sVhttponly
p78
I00
sVsecure
p79
I01
sa(dp80
Vdomain
p81
V.facebook.com
p82
sVname
p83
Vwd
p84
sVexpires
p85
VSun, 26 Oct 2014 05:18:30 GMT
p86
sVvalue
p87
V400x300
p88
sVexpiry
p89
I1414300710
sVpath
p90
g12
sVhttponly
p91
I00
sVsecure
p92
I00
sa(dp93
Vdomain
p94
V.facebook.com
p95
sVname
p96
Vlocale
p97
sVexpires
p98
VFri, 03 Oct 2014 05:18:29 GMT
p99
sVvalue
p100
Ven_GB
p101
sVexpiry
p102
I1412313509
sVpath
p103
g12
sVhttponly
p104
I00
sVsecure
p105
I00
sa(dp106
Vdomain
p107
V.facebook.com
p108
sVname
p109
Vdatr
p110
sVexpires
p111
VSun, 25 Sep 2016 05:18:29 GMT
p112
sVvalue
p113
VIvckVIJLo6AYdYw95m5IP6Iu
p114
sVexpiry
p115
I1474780709
sVpath
p116
g12
sVhttponly
p117
I01
sVsecure
p118
I00
sa.